; Function Attrs: nounwind uwtable
define dso_local range(i32 -9, 1) i32 @hs_deserialize_database(ptr noundef readonly %0, i64 noundef %1, ptr noundef writeonly %2) local_unnamed_addr #0 {
  %4 = icmp ne ptr %0, null
  %5 = icmp ne ptr %2, null
  %or.cond = and i1 %4, %5
  br i1 %or.cond, label %6, label %db_decode_header.exit.thread

6:                                                ; preds = %3
  store ptr null, ptr %2, align 8
  %7 = icmp ult i64 %1, 104
  br i1 %7, label %db_decode_header.exit.thread, label %8

8:                                                ; preds = %6
  %9 = load i32, ptr %0, align 1
  %.not27.i = icmp eq i32 %9, -606348325
  br i1 %.not27.i, label %10, label %db_decode_header.exit.thread

10:                                               ; preds = %8
  %11 = getelementptr inbounds nuw i8, ptr %0, i64 4
  %12 = load i32, ptr %11, align 1
  %.not28.i = icmp eq i32 %12, 84148736
  br i1 %.not28.i, label %13, label %db_decode_header.exit.thread

13:                                               ; preds = %10
  %14 = getelementptr inbounds nuw i8, ptr %0, i64 8
  %15 = load i32, ptr %14, align 1
  %16 = zext i32 %15 to i64
  %17 = add nuw nsw i64 %16, 104
  %.not29.i = icmp eq i64 %1, %17
  br i1 %.not29.i, label %18, label %db_decode_header.exit.thread

18:                                               ; preds = %13
  %19 = getelementptr inbounds nuw i8, ptr %0, i64 12
  %20 = load i64, ptr %19, align 1
  %21 = getelementptr inbounds nuw i8, ptr %0, i64 20
  %22 = getelementptr inbounds nuw i8, ptr %0, i64 24
  %23 = load i32, ptr %21, align 1
  %24 = getelementptr inbounds nuw i8, ptr %0, i64 28
  %25 = load i32, ptr %22, align 1
  %26 = getelementptr inbounds nuw i8, ptr %0, i64 32
  %27 = load i32, ptr %24, align 1
  %28 = and i64 %20, -32769
  %or.cond.not.i = icmp eq i64 %28, 196608
  br i1 %or.cond.not.i, label %29, label %db_decode_header.exit.thread

29:                                               ; preds = %18
  %30 = load ptr, ptr @hs_database_alloc, align 8
  %31 = tail call ptr %30(i64 noundef %1) #6
  %.not.i = icmp ne ptr %31, null
  %32 = ptrtoint ptr %31 to i64
  %33 = and i64 %32, 7
  %34 = icmp eq i64 %33, 0
  %.not26 = and i1 %.not.i, %34
  br i1 %.not26, label %37, label %35

35:                                               ; preds = %29
  %spec.select.i = select i1 %34, i32 0, i32 -9
  %.0.i = select i1 %.not.i, i32 %spec.select.i, i32 -2
  %36 = load ptr, ptr @hs_database_free, align 8
  tail call void %36(ptr noundef %31) #6
  br label %db_decode_header.exit.thread

37:                                               ; preds = %29
  tail call void @llvm.memset.p0.i64(ptr noundef nonnull align 8 dereferenceable(1) %31, i8 0, i64 %1, i1 false)
  store i32 -606348325, ptr %31, align 8
  %.sroa.5.0..sroa_idx = getelementptr inbounds nuw i8, ptr %31, i64 4
  store i32 84148736, ptr %.sroa.5.0..sroa_idx, align 4
  %.sroa.6.0..sroa_idx = getelementptr inbounds nuw i8, ptr %31, i64 8
  store i32 %15, ptr %.sroa.6.0..sroa_idx, align 8
  %.sroa.8.0..sroa_idx = getelementptr inbounds nuw i8, ptr %31, i64 12
  store i32 0, ptr %.sroa.8.0..sroa_idx, align 4
  %.sroa.832.0..sroa_idx = getelementptr inbounds nuw i8, ptr %31, i64 16
  store i64 %20, ptr %.sroa.832.0..sroa_idx, align 8
  %.sroa.10.0..sroa_idx = getelementptr inbounds nuw i8, ptr %31, i64 24
  store i32 %23, ptr %.sroa.10.0..sroa_idx, align 8
  %.sroa.11.0..sroa_idx = getelementptr inbounds nuw i8, ptr %31, i64 28
  store i32 %25, ptr %.sroa.11.0..sroa_idx, align 4
  %.sroa.12.0..sroa_idx = getelementptr inbounds nuw i8, ptr %31, i64 32
  store i32 %27, ptr %.sroa.12.0..sroa_idx, align 8
  %.sroa.13.0..sroa_idx = getelementptr inbounds nuw i8, ptr %31, i64 36
  %38 = getelementptr inbounds nuw i8, ptr %31, i64 40
  tail call void @llvm.memset.p0.i64(ptr noundef nonnull align 4 dereferenceable(64) %38, i8 0, i64 64, i1 false)
  %39 = getelementptr inbounds nuw i8, ptr %31, i64 104
  %40 = ptrtoint ptr %39 to i64
  %41 = trunc i64 %40 to i32
  %42 = and i32 %41, 56
  %43 = sub nuw nsw i32 104, %42
  store i32 %43, ptr %.sroa.13.0..sroa_idx, align 4
  %44 = zext nneg i32 %43 to i64
  %45 = getelementptr inbounds nuw i8, ptr %31, i64 %44
  tail call void @llvm.memcpy.p0.p0.i64(ptr nonnull align 1 %45, ptr nonnull readonly align 1 %26, i64 %16, i1 false)
  %46 = load i32, ptr %.sroa.13.0..sroa_idx, align 4
  %47 = zext i32 %46 to i64
  %48 = getelementptr inbounds nuw i8, ptr %31, i64 %47
  %49 = load i32, ptr %.sroa.6.0..sroa_idx, align 8
  %50 = zext i32 %49 to i64
  %51 = tail call i32 @Crc32c_ComputeBuf(i32 noundef 0, ptr noundef nonnull %48, i64 noundef %50) #6
  %52 = load i32, ptr %.sroa.10.0..sroa_idx, align 8
  %.not.i30.not = icmp eq i32 %51, %52
  br i1 %.not.i30.not, label %55, label %53

53:                                               ; preds = %37
  %54 = load ptr, ptr @hs_database_free, align 8
  tail call void %54(ptr noundef nonnull %31) #6
  br label %db_decode_header.exit.thread

55:                                               ; preds = %37
  store ptr %31, ptr %2, align 8
  br label %db_decode_header.exit.thread

db_decode_header.exit.thread:                     ; preds = %18, %55, %53, %35, %6, %8, %10, %13, %3
  %.0 = phi i32 [ -1, %3 ], [ -6, %18 ], [ %.0.i, %35 ], [ -1, %53 ], [ 0, %55 ], [ -1, %13 ], [ -5, %10 ], [ -1, %8 ], [ -1, %6 ]
  ret i32 %.0
}